target datalayout = "e-m:e-p270:32:32-p271:32:32-p272:64:64-i64:64-i128:128-f80:128-n8:16:32:64-S128"
target triple = "x86_64-unknown-linux-gnu"

; Function Attrs: mustprogress uwtable
define noundef ptr @_ZN6icu_7522TransliteratorRegistry3getERKNS_13UnicodeStringERPNS_19TransliteratorAliasER10UErrorCode(ptr noundef nonnull align 8 dereferenceable(312) %this, ptr noundef nonnull align 8 dereferenceable(64) %ID, ptr noundef nonnull align 8 dereferenceable(8) %aliasReturn, ptr noundef nonnull align 4 dereferenceable(4) %status) #1 align 2 {
entry:
  %this.addr = alloca ptr, align 8
  %ID.addr = alloca ptr, align 8
  %aliasReturn.addr = alloca ptr, align 8
  %status.addr = alloca ptr, align 8
  %entry2 = alloca ptr, align 8
  store ptr %this, ptr %this.addr, align 8
  store ptr %ID, ptr %ID.addr, align 8
  store ptr %aliasReturn, ptr %aliasReturn.addr, align 8
  store ptr %status, ptr %status.addr, align 8
  %this1 = load ptr, ptr %this.addr, align 8
  %0 = load ptr, ptr %ID.addr, align 8
  %call = call noundef ptr @_ZN6icu_7522TransliteratorRegistry4findERKNS_13UnicodeStringE(ptr noundef nonnull align 8 dereferenceable(312) %this1, ptr noundef nonnull align 8 dereferenceable(64) %0)
  store ptr %call, ptr %entry2, align 8
  %1 = load ptr, ptr %entry2, align 8
  %cmp = icmp eq ptr %1, null
  br i1 %cmp, label %cond.true, label %cond.false

cond.true:                                        ; preds = %entry
  br label %cond.end

cond.false:                                       ; preds = %entry
  %2 = load ptr, ptr %ID.addr, align 8
  %3 = load ptr, ptr %entry2, align 8
  %4 = load ptr, ptr %aliasReturn.addr, align 8
  %5 = load ptr, ptr %status.addr, align 8
  %call3 = call noundef ptr @_ZN6icu_7522TransliteratorRegistry16instantiateEntryERKNS_13UnicodeStringEPNS_19TransliteratorEntryERPNS_19TransliteratorAliasER10UErrorCode(ptr noundef nonnull align 8 dereferenceable(312) %this1, ptr noundef nonnull align 8 dereferenceable(64) %2, ptr noundef %3, ptr noundef nonnull align 8 dereferenceable(8) %4, ptr noundef nonnull align 4 dereferenceable(4) %5)
  br label %cond.end

cond.end:                                         ; preds = %cond.false, %cond.true
  %cond = phi ptr [ null, %cond.true ], [ %call3, %cond.false ]
  ret ptr %cond
}