; Function Attrs: mustprogress uwtable
define noundef ptr @_ZN6icu_7522TransliteratorRegistry3getERKNS_13UnicodeStringERPNS_19TransliteratorAliasER10UErrorCode(ptr noundef nonnull align 8 dereferenceable(312) %this, ptr noundef nonnull align 8 dereferenceable(64) %ID, ptr nocapture noundef nonnull writeonly align 8 dereferenceable(8) %aliasReturn, ptr noundef nonnull align 4 dereferenceable(4) %status) local_unnamed_addr #1 align 2 {
entry:
  %call = tail call noundef ptr @_ZN6icu_7522TransliteratorRegistry4findERKNS_13UnicodeStringE(ptr noundef nonnull align 8 dereferenceable(312) %this, ptr noundef nonnull align 8 dereferenceable(64) %ID)
  %cmp = icmp eq ptr %call, null
  br i1 %cmp, label %cond.end, label %cond.false

cond.false:                                       ; preds = %entry
  %call3 = tail call noundef ptr @_ZN6icu_7522TransliteratorRegistry16instantiateEntryERKNS_13UnicodeStringEPNS_19TransliteratorEntryERPNS_19TransliteratorAliasER10UErrorCode(ptr nonnull align 8 poison, ptr noundef nonnull align 8 dereferenceable(64) %ID, ptr noundef nonnull %call, ptr noundef nonnull align 8 dereferenceable(8) %aliasReturn, ptr noundef nonnull align 4 dereferenceable(4) %status)
  br label %cond.end

cond.end:                                         ; preds = %entry, %cond.false
  %cond = phi ptr [ %call3, %cond.false ], [ null, %entry ]
  ret ptr %cond
}